; Function Attrs: nounwind sspstrong uwtable
define dso_local noundef zeroext i1 @visit_type_AudiodevSdlOptions_members(ptr noundef %v, ptr noundef %obj, ptr noundef %errp) local_unnamed_addr #0 {
entry:
  %has_in = alloca i8, align 1
  %has_out = alloca i8, align 1
  %0 = load ptr, ptr %obj, align 8
  %tobool = icmp ne ptr %0, null
  %frombool = zext i1 %tobool to i8
  store i8 %frombool, ptr %has_in, align 1
  %out = getelementptr inbounds nuw i8, ptr %obj, i64 8
  %1 = load ptr, ptr %out, align 8
  %tobool2 = icmp ne ptr %1, null
  %frombool5 = zext i1 %tobool2 to i8
  store i8 %frombool5, ptr %has_out, align 1
  %call = call zeroext i1 @visit_optional(ptr noundef %v, ptr noundef nonnull @.str.9, ptr noundef nonnull %has_in) #5
  br i1 %call, label %if.then, label %if.end9

if.then:                                          ; preds = %entry
  %call7 = call zeroext i1 @visit_type_AudiodevSdlPerDirectionOptions(ptr noundef %v, ptr noundef nonnull @.str.9, ptr noundef nonnull %obj, ptr noundef %errp)
  br i1 %call7, label %if.end9, label %return

if.end9:                                          ; preds = %if.then, %entry
  %call10 = call zeroext i1 @visit_optional(ptr noundef %v, ptr noundef nonnull @.str.10, ptr noundef nonnull %has_out) #5
  br i1 %call10, label %if.then11, label %if.end16

if.then11:                                        ; preds = %if.end9
  %call13 = call zeroext i1 @visit_type_AudiodevSdlPerDirectionOptions(ptr noundef %v, ptr noundef nonnull @.str.10, ptr noundef nonnull %out, ptr noundef %errp)
  br i1 %call13, label %if.end16, label %return

if.end16:                                         ; preds = %if.then11, %if.end9
  br label %return

return:                                           ; preds = %if.then11, %if.then, %if.end16
  %retval.0 = phi i1 [ true, %if.end16 ], [ false, %if.then ], [ false, %if.then11 ]
  ret i1 %retval.0
}